; ModuleID = 'source-C-CXX/24/102.cpp'
source_filename = "source-C-CXX/24/102.cpp"
target datalayout = "e-m:e-p270:32:32-p271:32:32-p272:64:64-i64:64-f80:128-n8:16:32:64-S128"
target triple = "x86_64-pc-linux-gnu"

%"class.std::ios_base::Init" = type { i8 }
%"class.std::basic_istream" = type { i32 (...)**, i64, %"class.std::basic_ios" }
%"class.std::basic_ios" = type { %"class.std::ios_base", %"class.std::basic_ostream"*, i8, i8, %"class.std::basic_streambuf"*, %"class.std::ctype"*, %"class.std::num_put"*, %"class.std::num_get"* }
%"class.std::ios_base" = type { i32 (...)**, i64, i64, i32, i32, i32, %"struct.std::ios_base::_Callback_list"*, %"struct.std::ios_base::_Words", [8 x %"struct.std::ios_base::_Words"], i32, %"struct.std::ios_base::_Words"*, %"class.std::locale" }
%"struct.std::ios_base::_Callback_list" = type { %"struct.std::ios_base::_Callback_list"*, void (i32, %"class.std::ios_base"*, i32)*, i32, i32 }
%"struct.std::ios_base::_Words" = type { i8*, i64 }
%"class.std::locale" = type { %"class.std::locale::_Impl"* }
%"class.std::locale::_Impl" = type { i32, %"class.std::locale::facet"**, i64, %"class.std::locale::facet"**, i8** }
%"class.std::locale::facet" = type <{ i32 (...)**, i32, [4 x i8] }>
%"class.std::basic_ostream" = type { i32 (...)**, %"class.std::basic_ios" }
%"class.std::basic_streambuf" = type { i32 (...)**, i8*, i8*, i8*, i8*, i8*, i8*, %"class.std::locale" }
%"class.std::ctype" = type <{ %"class.std::locale::facet.base", [4 x i8], %struct.__locale_struct*, i8, [7 x i8], i32*, i32*, i16*, i8, [256 x i8], [256 x i8], i8, [6 x i8] }>
%"class.std::locale::facet.base" = type <{ i32 (...)**, i32 }>
%struct.__locale_struct = type { [13 x %struct.__locale_data*], i16*, i32*, i32*, [13 x i8*] }
%struct.__locale_data = type opaque
%"class.std::num_put" = type { %"class.std::locale::facet.base", [4 x i8] }
%"class.std::num_get" = type { %"class.std::locale::facet.base", [4 x i8] }

@_ZStL8__ioinit = internal global %"class.std::ios_base::Init" zeroinitializer, align 1
@__dso_handle = external hidden global i8
@_ZSt3cin = external global %"class.std::basic_istream", align 8
@_ZSt4cout = external global %"class.std::basic_ostream", align 8
@llvm.global_ctors = appending global [1 x { i32, void ()*, i8* }] [{ i32, void ()*, i8* } { i32 65535, void ()* @_GLOBAL__sub_I_102.cpp, i8* null }]

declare void @_ZNSt8ios_base4InitC1Ev(%"class.std::ios_base::Init"* nonnull align 1 dereferenceable(1)) unnamed_addr #0

; Function Attrs: nounwind
declare void @_ZNSt8ios_base4InitD1Ev(%"class.std::ios_base::Init"* nonnull align 1 dereferenceable(1)) unnamed_addr #1

; Function Attrs: nofree nounwind
declare i32 @__cxa_atexit(void (i8*)*, i8*, i8*) local_unnamed_addr #2

; Function Attrs: mustprogress norecurse sspstrong uwtable
define dso_local i32 @main() local_unnamed_addr #3 {
  %1 = alloca i32, align 4
  %2 = alloca [100 x i32], align 16
  %3 = bitcast i32* %1 to i8*
  call void @llvm.lifetime.start.p0i8(i64 4, i8* nonnull %3) #7
  %4 = bitcast [100 x i32]* %2 to i8*
  call void @llvm.lifetime.start.p0i8(i64 400, i8* nonnull %4) #7
  %5 = call nonnull align 8 dereferenceable(16) %"class.std::basic_istream"* @_ZNSirsERi(%"class.std::basic_istream"* nonnull align 8 dereferenceable(16) @_ZSt3cin, i32* nonnull align 4 dereferenceable(4) %1)
  %6 = getelementptr inbounds [100 x i32], [100 x i32]* %2, i64 0, i64 0
  call void @llvm.memset.p0i8.i64(i8* noundef nonnull align 16 dereferenceable(400) %4, i8 0, i64 400, i1 false)
  store i32 1, i32* %6, align 16, !tbaa !5
  %7 = load i32, i32* %1, align 4, !tbaa !5
  %8 = icmp sgt i32 %7, 0
  br i1 %8, label %10, label %9

9:                                                ; preds = %13, %0
  br label %96

10:                                               ; preds = %0
  %11 = add nuw i32 %7, 1
  %12 = zext i32 %11 to i64
  br label %17

13:                                               ; preds = %85
  %14 = add nuw nsw i64 %19, 1
  %15 = icmp eq i64 %14, %12
  %16 = add i64 %18, 1
  br i1 %15, label %9, label %17, !llvm.loop !9

17:                                               ; preds = %10, %13
  %18 = phi i64 [ 0, %10 ], [ %16, %13 ]
  %19 = phi i64 [ 1, %10 ], [ %14, %13 ]
  %20 = add i64 %18, -7
  %21 = lshr i64 %20, 3
  %22 = add nuw nsw i64 %21, 1
  %23 = add i64 %18, 1
  %24 = icmp ult i64 %23, 8
  br i1 %24, label %74, label %25

25:                                               ; preds = %17
  %26 = and i64 %23, -8
  %27 = and i64 %22, 1
  %28 = icmp ult i64 %20, 8
  br i1 %28, label %58, label %29

29:                                               ; preds = %25
  %30 = and i64 %22, 4611686018427387902
  br label %31

31:                                               ; preds = %31, %29
  %32 = phi i64 [ 0, %29 ], [ %55, %31 ]
  %33 = phi i64 [ %30, %29 ], [ %56, %31 ]
  %34 = getelementptr inbounds [100 x i32], [100 x i32]* %2, i64 0, i64 %32
  %35 = bitcast i32* %34 to <4 x i32>*
  %36 = load <4 x i32>, <4 x i32>* %35, align 16, !tbaa !5
  %37 = getelementptr inbounds i32, i32* %34, i64 4
  %38 = bitcast i32* %37 to <4 x i32>*
  %39 = load <4 x i32>, <4 x i32>* %38, align 16, !tbaa !5
  %40 = shl nsw <4 x i32> %36, <i32 1, i32 1, i32 1, i32 1>
  %41 = shl nsw <4 x i32> %39, <i32 1, i32 1, i32 1, i32 1>
  %42 = bitcast i32* %34 to <4 x i32>*
  store <4 x i32> %40, <4 x i32>* %42, align 16, !tbaa !5
  %43 = bitcast i32* %37 to <4 x i32>*
  store <4 x i32> %41, <4 x i32>* %43, align 16, !tbaa !5
  %44 = or i64 %32, 8
  %45 = getelementptr inbounds [100 x i32], [100 x i32]* %2, i64 0, i64 %44
  %46 = bitcast i32* %45 to <4 x i32>*
  %47 = load <4 x i32>, <4 x i32>* %46, align 16, !tbaa !5
  %48 = getelementptr inbounds i32, i32* %45, i64 4
  %49 = bitcast i32* %48 to <4 x i32>*
  %50 = load <4 x i32>, <4 x i32>* %49, align 16, !tbaa !5
  %51 = shl nsw <4 x i32> %47, <i32 1, i32 1, i32 1, i32 1>
  %52 = shl nsw <4 x i32> %50, <i32 1, i32 1, i32 1, i32 1>
  %53 = bitcast i32* %45 to <4 x i32>*
  store <4 x i32> %51, <4 x i32>* %53, align 16, !tbaa !5
  %54 = bitcast i32* %48 to <4 x i32>*
  store <4 x i32> %52, <4 x i32>* %54, align 16, !tbaa !5
  %55 = add nuw i64 %32, 16
  %56 = add i64 %33, -2
  %57 = icmp eq i64 %56, 0
  br i1 %57, label %58, label %31, !llvm.loop !11

58:                                               ; preds = %31, %25
  %59 = phi i64 [ 0, %25 ], [ %55, %31 ]
  %60 = icmp eq i64 %27, 0
  br i1 %60, label %72, label %61

61:                                               ; preds = %58
  %62 = getelementptr inbounds [100 x i32], [100 x i32]* %2, i64 0, i64 %59
  %63 = bitcast i32* %62 to <4 x i32>*
  %64 = load <4 x i32>, <4 x i32>* %63, align 16, !tbaa !5
  %65 = getelementptr inbounds i32, i32* %62, i64 4
  %66 = bitcast i32* %65 to <4 x i32>*
  %67 = load <4 x i32>, <4 x i32>* %66, align 16, !tbaa !5
  %68 = shl nsw <4 x i32> %64, <i32 1, i32 1, i32 1, i32 1>
  %69 = shl nsw <4 x i32> %67, <i32 1, i32 1, i32 1, i32 1>
  %70 = bitcast i32* %62 to <4 x i32>*
  store <4 x i32> %68, <4 x i32>* %70, align 16, !tbaa !5
  %71 = bitcast i32* %65 to <4 x i32>*
  store <4 x i32> %69, <4 x i32>* %71, align 16, !tbaa !5
  br label %72

72:                                               ; preds = %58, %61
  %73 = icmp eq i64 %23, %26
  br i1 %73, label %76, label %74

74:                                               ; preds = %17, %72
  %75 = phi i64 [ 0, %17 ], [ %26, %72 ]
  br label %78

76:                                               ; preds = %78, %72
  %77 = load i32, i32* %6, align 16, !tbaa !5
  br label %85

78:                                               ; preds = %74, %78
  %79 = phi i64 [ %83, %78 ], [ %75, %74 ]
  %80 = getelementptr inbounds [100 x i32], [100 x i32]* %2, i64 0, i64 %79
  %81 = load i32, i32* %80, align 4, !tbaa !5
  %82 = shl nsw i32 %81, 1
  store i32 %82, i32* %80, align 4, !tbaa !5
  %83 = add nuw nsw i64 %79, 1
  %84 = icmp eq i64 %83, %19
  br i1 %84, label %76, label %78, !llvm.loop !13

85:                                               ; preds = %76, %85
  %86 = phi i32 [ %77, %76 ], [ %93, %85 ]
  %87 = phi i64 [ 0, %76 ], [ %90, %85 ]
  %88 = getelementptr inbounds [100 x i32], [100 x i32]* %2, i64 0, i64 %87
  %89 = sdiv i32 %86, 10
  %90 = add nuw nsw i64 %87, 1
  %91 = getelementptr inbounds [100 x i32], [100 x i32]* %2, i64 0, i64 %90
  %92 = load i32, i32* %91, align 4, !tbaa !5
  %93 = add nsw i32 %92, %89
  store i32 %93, i32* %91, align 4, !tbaa !5
  %94 = srem i32 %86, 10
  store i32 %94, i32* %88, align 4, !tbaa !5
  %95 = icmp eq i64 %90, %19
  br i1 %95, label %13, label %85, !llvm.loop !15

96:                                               ; preds = %9, %96
  %97 = phi i64 [ %101, %96 ], [ 99, %9 ]
  %98 = getelementptr inbounds [100 x i32], [100 x i32]* %2, i64 0, i64 %97
  %99 = load i32, i32* %98, align 4, !tbaa !5
  %100 = icmp eq i32 %99, 0
  %101 = add i64 %97, -1
  br i1 %100, label %96, label %102, !llvm.loop !16

102:                                              ; preds = %96
  %103 = trunc i64 %97 to i32
  %104 = icmp sgt i32 %103, -1
  br i1 %104, label %105, label %114

105:                                              ; preds = %102
  %106 = and i64 %97, 4294967295
  br label %107

107:                                              ; preds = %105, %107
  %108 = phi i64 [ %106, %105 ], [ %113, %107 ]
  %109 = getelementptr inbounds [100 x i32], [100 x i32]* %2, i64 0, i64 %108
  %110 = load i32, i32* %109, align 4, !tbaa !5
  %111 = call nonnull align 8 dereferenceable(8) %"class.std::basic_ostream"* @_ZNSolsEi(%"class.std::basic_ostream"* nonnull align 8 dereferenceable(8) @_ZSt4cout, i32 %110)
  %112 = icmp sgt i64 %108, 0
  %113 = add nsw i64 %108, -1
  br i1 %112, label %107, label %114, !llvm.loop !17

114:                                              ; preds = %107, %102
  call void @llvm.lifetime.end.p0i8(i64 400, i8* nonnull %4) #7
  call void @llvm.lifetime.end.p0i8(i64 4, i8* nonnull %3) #7
  ret i32 0
}

; Function Attrs: argmemonly mustprogress nofree nosync nounwind willreturn
declare void @llvm.lifetime.start.p0i8(i64 immarg, i8* nocapture) #4

declare nonnull align 8 dereferenceable(16) %"class.std::basic_istream"* @_ZNSirsERi(%"class.std::basic_istream"* nonnull align 8 dereferenceable(16), i32* nonnull align 4 dereferenceable(4)) local_unnamed_addr #0

; Function Attrs: argmemonly mustprogress nofree nounwind willreturn writeonly
declare void @llvm.memset.p0i8.i64(i8* nocapture writeonly, i8, i64, i1 immarg) #5

declare nonnull align 8 dereferenceable(8) %"class.std::basic_ostream"* @_ZNSolsEi(%"class.std::basic_ostream"* nonnull align 8 dereferenceable(8), i32) local_unnamed_addr #0

; Function Attrs: argmemonly mustprogress nofree nosync nounwind willreturn
declare void @llvm.lifetime.end.p0i8(i64 immarg, i8* nocapture) #4

; Function Attrs: sspstrong uwtable
define internal void @_GLOBAL__sub_I_102.cpp() #6 section ".text.startup" {
  tail call void @_ZNSt8ios_base4InitC1Ev(%"class.std::ios_base::Init"* nonnull align 1 dereferenceable(1) @_ZStL8__ioinit)
  %1 = tail call i32 @__cxa_atexit(void (i8*)* bitcast (void (%"class.std::ios_base::Init"*)* @_ZNSt8ios_base4InitD1Ev to void (i8*)*), i8* getelementptr inbounds (%"class.std::ios_base::Init", %"class.std::ios_base::Init"* @_ZStL8__ioinit, i64 0, i32 0), i8* nonnull @__dso_handle) #7
  ret void
}


!llvm.module.flags = !{!0, !1, !2, !3}
!llvm.ident = !{!4}

!0 = !{i32 1, !"wchar_size", i32 4}
!1 = !{i32 7, !"PIC Level", i32 2}
!2 = !{i32 7, !"PIE Level", i32 2}
!3 = !{i32 7, !"uwtable", i32 1}
!4 = !{!"clang version 13.0.0"}
!5 = !{!6, !6, i64 0}
!6 = !{!"int", !7, i64 0}
!7 = !{!"omnipotent char", !8, i64 0}
!8 = !{!"Simple C++ TBAA"}
!9 = distinct !{!9, !10}
!10 = !{!"llvm.loop.mustprogress"}
!11 = distinct !{!11, !10, !12}
!12 = !{!"llvm.loop.isvectorized", i32 1}
!13 = distinct !{!13, !10, !14, !12}
!14 = !{!"llvm.loop.unroll.runtime.disable"}
!15 = distinct !{!15, !10}
!16 = distinct !{!16, !10}
!17 = distinct !{!17, !10}
